; Function Attrs: nounwind uwtable
define internal void @webvtt_style_cb(ptr noundef %0, i8 noundef signext %1, i32 noundef %2) #1 {
  %4 = sext i8 %1 to i32
  %5 = icmp eq i8 %1, 115
  br i1 %5, label %webvtt_stack_push_pop.exit, label %6

6:                                                ; preds = %3
  %.not.i = icmp eq i32 %2, 0
  br i1 %.not.i, label %35, label %7

7:                                                ; preds = %6
  %.not11.i = icmp eq i8 %1, 0
  %.phi.trans.insert = getelementptr inbounds nuw i8, ptr %0, i64 1112
  %.pre = load i32, ptr %.phi.trans.insert, align 8, !tbaa !54
  br i1 %.not11.i, label %.preheader.i, label %8

8:                                                ; preds = %7
  %9 = getelementptr inbounds nuw i8, ptr %0, i64 1048
  %10 = zext i32 %.pre to i64
  %smin.i.i = tail call i32 @llvm.smin.i32(i32 %.pre, i32 0)
  %11 = add i32 %smin.i.i, -1
  br label %12

12:                                               ; preds = %15, %8
  %indvars.iv.i.i = phi i64 [ %indvars.iv.next.i.i, %15 ], [ %10, %8 ]
  %13 = trunc nuw i64 %indvars.iv.i.i to i32
  %14 = icmp sgt i32 %13, 0
  br i1 %14, label %15, label %webvtt_stack_find.exit.i

15:                                               ; preds = %12
  %indvars.iv.next.i.i = add nsw i64 %indvars.iv.i.i, -1
  %16 = and i64 %indvars.iv.next.i.i, 4294967295
  %17 = getelementptr inbounds nuw [64 x i8], ptr %9, i64 0, i64 %16
  %18 = load i8, ptr %17, align 1, !tbaa !55
  %19 = icmp eq i8 %18, %1
  br i1 %19, label %.split.loop.exit.i.i, label %12, !llvm.loop !58

.split.loop.exit.i.i:                             ; preds = %15
  %indvars.le.i.i = trunc i64 %indvars.iv.next.i.i to i32
  br label %webvtt_stack_find.exit.i

webvtt_stack_find.exit.i:                         ; preds = %12, %.split.loop.exit.i.i
  %20 = phi i32 [ %indvars.le.i.i, %.split.loop.exit.i.i ], [ %11, %12 ]
  %21 = icmp slt i32 %20, 0
  br i1 %21, label %webvtt_stack_push_pop.exit, label %.preheader.i

.preheader.i:                                     ; preds = %7, %webvtt_stack_find.exit.i
  %22 = phi i32 [ %20, %webvtt_stack_find.exit.i ], [ 0, %7 ]
  %23 = getelementptr inbounds nuw i8, ptr %0, i64 1112
  %.not1215.i = icmp eq i32 %.pre, %22
  br i1 %.not1215.i, label %webvtt_stack_push_pop.exit, label %.lr.ph.i

.lr.ph.i:                                         ; preds = %.preheader.i
  %24 = getelementptr inbounds nuw i8, ptr %0, i64 1048
  br label %25

25:                                               ; preds = %webvtt_stack_pop.exit.i, %.lr.ph.i
  %26 = phi i32 [ %.pre, %.lr.ph.i ], [ %34, %webvtt_stack_pop.exit.i ]
  %27 = icmp slt i32 %26, 1
  br i1 %27, label %webvtt_stack_pop.exit.i, label %28

28:                                               ; preds = %25
  %29 = add nsw i32 %26, -1
  store i32 %29, ptr %23, align 8, !tbaa !54
  %30 = zext nneg i32 %29 to i64
  %31 = getelementptr inbounds nuw [64 x i8], ptr %24, i64 0, i64 %30
  %32 = load i8, ptr %31, align 1, !tbaa !55
  %33 = sext i8 %32 to i32
  br label %webvtt_stack_pop.exit.i

webvtt_stack_pop.exit.i:                          ; preds = %28, %25
  %.0.i.i = phi i32 [ %33, %28 ], [ 0, %25 ]
  tail call void (ptr, ptr, ...) @webvtt_print(ptr noundef nonnull %0, ptr noundef nonnull @.str.10, i32 noundef %.0.i.i)
  %34 = load i32, ptr %23, align 8, !tbaa !54
  %.not12.i = icmp eq i32 %34, %22
  br i1 %.not12.i, label %webvtt_stack_push_pop.exit, label %25, !llvm.loop !59

35:                                               ; preds = %6
  %36 = getelementptr inbounds nuw i8, ptr %0, i64 1112
  %37 = load i32, ptr %36, align 8, !tbaa !54
  %38 = icmp sgt i32 %37, 63
  br i1 %38, label %43, label %webvtt_stack_push.exit.i

webvtt_stack_push.exit.i:                         ; preds = %35
  %39 = getelementptr inbounds nuw i8, ptr %0, i64 1048
  %40 = add nsw i32 %37, 1
  store i32 %40, ptr %36, align 8, !tbaa !54
  %41 = sext i32 %37 to i64
  %42 = getelementptr inbounds [64 x i8], ptr %39, i64 0, i64 %41
  store i8 %1, ptr %42, align 1, !tbaa !55
  br label %webvtt_stack_push_pop.exit.thread

43:                                               ; preds = %35
  %44 = load ptr, ptr %0, align 8, !tbaa !27
  tail call void (ptr, i32, ptr, ...) @av_log(ptr noundef %44, i32 noundef 16, ptr noundef nonnull @.str.9) #6
  br label %webvtt_stack_push_pop.exit.thread

webvtt_stack_push_pop.exit.thread:                ; preds = %43, %webvtt_stack_push.exit.i
  tail call void (ptr, ptr, ...) @webvtt_print(ptr noundef nonnull %0, ptr noundef nonnull @.str.8, i32 noundef %4)
  br label %webvtt_stack_push_pop.exit

webvtt_stack_push_pop.exit:                       ; preds = %webvtt_stack_pop.exit.i, %.preheader.i, %webvtt_stack_find.exit.i, %3, %webvtt_stack_push_pop.exit.thread
  ret void
}